target datalayout = "e-m:e-p270:32:32-p271:32:32-p272:64:64-i64:64-i128:128-f80:128-n8:16:32:64-S128"
target triple = "x86_64-pc-linux-gnu"

@.str.1 = private unnamed_addr constant [101 x i8] c"generated/home/dtcxzyw/WorkSpace/Projects/compilers/llvm-opt-benchmark/bench/hdf5/hdf5/src/H5Pdxpl.c\00", align 1
@H5E_PLIST_g = external global i64, align 8
@__func__.H5P__dxfr_xform_del = private unnamed_addr constant [20 x i8] c"H5P__dxfr_xform_del\00", align 1
@H5E_CANTCLOSEOBJ_g = external global i64, align 8
@.str.72 = private unnamed_addr constant [29 x i8] c"error closing the parse tree\00", align 1

; Function Attrs: nounwind uwtable
define internal i32 @H5P__dxfr_xform_del(i64 noundef %0, ptr noundef %1, i64 noundef %2, ptr noundef %3) #0 {
  %5 = alloca i64, align 8
  %6 = alloca ptr, align 8
  %7 = alloca i64, align 8
  %8 = alloca ptr, align 8
  %9 = alloca i32, align 4
  %10 = alloca i8, align 1
  store i64 %0, ptr %5, align 8
  store ptr %1, ptr %6, align 8
  store i64 %2, ptr %7, align 8
  store ptr %3, ptr %8, align 8
  store i32 0, ptr %9, align 4
  store i8 0, ptr %10, align 1
  %11 = load ptr, ptr %8, align 8
  %12 = load ptr, ptr %11, align 8
  %13 = call i32 @H5Z_xform_destroy(ptr noundef %12)
  %14 = icmp slt i32 %13, 0
  br i1 %14, label %15, label %30

15:                                               ; preds = %4
  br label %16

16:                                               ; preds = %15
  br label %17

17:                                               ; preds = %16
  br label %18

18:                                               ; preds = %17
  %19 = load i64, ptr @H5E_PLIST_g, align 8
  %20 = load i64, ptr @H5E_CANTCLOSEOBJ_g, align 8
  %21 = call i32 (ptr, ptr, i32, i64, i64, ptr, ...) @H5E_printf_stack(ptr noundef @.str.1, ptr noundef @__func__.H5P__dxfr_xform_del, i32 noundef 839, i64 noundef %19, i64 noundef %20, ptr noundef @.str.72)
  br label %22

22:                                               ; preds = %18
  store i8 1, ptr %10, align 1
  %23 = load i8, ptr %10, align 1
  %24 = trunc i8 %23 to i1
  %25 = zext i1 %24 to i8
  store i8 %25, ptr %10, align 1
  br label %26

26:                                               ; preds = %22
  br label %27

27:                                               ; preds = %26
  store i32 -1, ptr %9, align 4
  br label %31

28:                                               ; No predecessors!
  br label %29

29:                                               ; preds = %28
  br label %30

30:                                               ; preds = %29, %4
  br label %31

31:                                               ; preds = %30, %27
  %32 = load i32, ptr %9, align 4
  ret i32 %32
}