; Function Attrs: nounwind uwtable
define internal range(i32 -1, 1) i32 @H5P__dxfr_xform_del(i64 %0, ptr nocapture readnone %1, i64 %2, ptr nocapture noundef readonly %3) #0 {
  %5 = load ptr, ptr %3, align 8
  %6 = tail call i32 @H5Z_xform_destroy(ptr noundef %5) #8
  %7 = icmp slt i32 %6, 0
  br i1 %7, label %8, label %12

8:                                                ; preds = %4
  %9 = load i64, ptr @H5E_PLIST_g, align 8
  %10 = load i64, ptr @H5E_CANTCLOSEOBJ_g, align 8
  %11 = tail call i32 (ptr, ptr, i32, i64, i64, ptr, ...) @H5E_printf_stack(ptr noundef nonnull @.str.1, ptr noundef nonnull @__func__.H5P__dxfr_xform_del, i32 noundef 839, i64 noundef %9, i64 noundef %10, ptr noundef nonnull @.str.72) #8
  br label %12

12:                                               ; preds = %4, %8
  %.0 = phi i32 [ -1, %8 ], [ 0, %4 ]
  ret i32 %.0
}